target datalayout = "e-m:e-p270:32:32-p271:32:32-p272:64:64-i64:64-i128:128-f80:128-n8:16:32:64-S128"
target triple = "x86_64-unknown-linux-gnu"

%class.b3CpuRigidBodyPipeline = type { ptr, ptr }

; Function Attrs: mustprogress nounwind uwtable
define dso_local void @_ZN22b3CpuRigidBodyPipelineD2Ev(ptr noundef nonnull align 8 dereferenceable(16) %this) unnamed_addr #4 align 2 {
entry:
  %this.addr = alloca ptr, align 8
  store ptr %this, ptr %this.addr, align 8
  %this1 = load ptr, ptr %this.addr, align 8
  store ptr getelementptr inbounds ({ [10 x ptr] }, ptr @_ZTV22b3CpuRigidBodyPipeline, i32 0, i32 0, i32 2), ptr %this1, align 8
  %m_data = getelementptr inbounds %class.b3CpuRigidBodyPipeline, ptr %this1, i32 0, i32 1
  %0 = load ptr, ptr %m_data, align 8
  %isnull = icmp eq ptr %0, null
  br i1 %isnull, label %delete.end, label %delete.notnull

delete.notnull:                                   ; preds = %entry
  call void @_ZN34b3CpuRigidBodyPipelineInternalDataD2Ev(ptr noundef nonnull align 8 dereferenceable(160) %0) #13
  call void @_ZdlPv(ptr noundef %0) #12
  br label %delete.end

delete.end:                                       ; preds = %delete.notnull, %entry
  ret void
}